target datalayout = "e-m:e-p270:32:32-p271:32:32-p272:64:64-i64:64-i128:128-f80:128-n8:16:32:64-S128"
target triple = "x86_64-pc-linux-gnu"

%struct._lv_calendar_t = type { %struct._lv_obj_t, ptr, %struct.lv_calendar_date_t, %struct.lv_calendar_date_t, ptr, i64, [56 x ptr], i8, [42 x [20 x i8]] }
%struct._lv_obj_t = type { ptr, ptr, ptr, ptr, ptr, %struct.lv_area_t, i32, i16, i16 }
%struct.lv_area_t = type { i32, i32, i32, i32 }
%struct.lv_calendar_date_t = type { i16, i8, i8 }

; Function Attrs: nounwind uwtable
define void @lv_calendar_set_highlighted_dates(ptr noundef %0, ptr noundef %1, i64 noundef %2) #0 {
  %4 = alloca ptr, align 8
  %5 = alloca ptr, align 8
  %6 = alloca i64, align 8
  %7 = alloca ptr, align 8
  store ptr %0, ptr %4, align 8, !tbaa !3
  store ptr %1, ptr %5, align 8, !tbaa !3
  store i64 %2, ptr %6, align 8, !tbaa !33
  br label %8

8:                                                ; preds = %3
  %9 = load ptr, ptr %5, align 8, !tbaa !3
  %10 = icmp ne ptr %9, null
  br i1 %10, label %15, label %11

11:                                               ; preds = %8
  br label %12

12:                                               ; preds = %11
  br label %13

13:                                               ; preds = %12
  br label %14

14:                                               ; preds = %13, %14
  br label %14

15:                                               ; preds = %8
  br label %16

16:                                               ; preds = %15
  br label %17

17:                                               ; preds = %16
  br label %18

18:                                               ; preds = %17
  call void @llvm.lifetime.start.p0(i64 8, ptr %7) #5
  %19 = load ptr, ptr %4, align 8, !tbaa !3
  store ptr %19, ptr %7, align 8, !tbaa !3
  %20 = load ptr, ptr %5, align 8, !tbaa !3
  %21 = load ptr, ptr %7, align 8, !tbaa !3
  %22 = getelementptr inbounds nuw %struct._lv_calendar_t, ptr %21, i32 0, i32 4
  store ptr %20, ptr %22, align 8, !tbaa !21
  %23 = load i64, ptr %6, align 8, !tbaa !33
  %24 = load ptr, ptr %7, align 8, !tbaa !3
  %25 = getelementptr inbounds nuw %struct._lv_calendar_t, ptr %24, i32 0, i32 5
  store i64 %23, ptr %25, align 8, !tbaa !22
  %26 = load ptr, ptr %4, align 8, !tbaa !3
  call void @highlight_update(ptr noundef %26)
  call void @llvm.lifetime.end.p0(i64 8, ptr %7) #5
  ret void
}