; Function Attrs: nounwind uwtable
define void @lv_calendar_set_highlighted_dates(ptr nocapture noundef %0, ptr noundef %1, i64 noundef %2) local_unnamed_addr #0 {
  %.not = icmp eq ptr %1, null
  br i1 %.not, label %.preheader, label %4

.preheader:                                       ; preds = %3, %.preheader
  br label %.preheader

4:                                                ; preds = %3
  %5 = getelementptr inbounds nuw i8, ptr %0, i64 80
  store ptr %1, ptr %5, align 8, !tbaa !26
  %6 = getelementptr inbounds nuw i8, ptr %0, i64 88
  store i64 %2, ptr %6, align 8, !tbaa !27
  tail call fastcc void @highlight_update(ptr noundef %0)
  ret void
}